target datalayout = "e-m:e-p270:32:32-p271:32:32-p272:64:64-i64:64-i128:128-f80:128-n8:16:32:64-S128"
target triple = "x86_64-pc-linux-gnu"

%"class.StringDedup::Table::Bucket" = type { %class.GrowableArrayCHeap, %class.GrowableArrayCHeap.0 }
%class.GrowableArrayCHeap = type { %class.GrowableArrayWithAllocator }
%class.GrowableArrayWithAllocator = type { %class.GrowableArrayView }
%class.GrowableArrayView = type { %class.GrowableArrayBase, ptr }
%class.GrowableArrayBase = type { i32, i32 }
%class.GrowableArrayCHeap.0 = type { %class.GrowableArrayWithAllocator.1 }
%class.GrowableArrayWithAllocator.1 = type { %class.GrowableArrayView.2 }
%class.GrowableArrayView.2 = type { %class.GrowableArrayBase, ptr }
%"class.StringDedup::Table::Resizer" = type { %"class.StringDedup::Table::CleanupState", ptr, i64, i64, i64 }
%"class.StringDedup::Table::CleanupState" = type { ptr }

; Function Attrs: mustprogress nounwind uwtable
define hidden void @_ZNK11StringDedup5Table7Resizer6verifyEv(ptr noundef nonnull align 8 dereferenceable(40) %0) unnamed_addr #1 align 2 {
  %2 = alloca ptr, align 8
  %3 = alloca i64, align 8
  store ptr %0, ptr %2, align 8
  %4 = load ptr, ptr %2, align 8
  store i64 0, ptr %3, align 8
  br label %5

5:                                                ; preds = %18, %1
  %6 = load i64, ptr %3, align 8
  %7 = getelementptr inbounds %"class.StringDedup::Table::Resizer", ptr %4, i32 0, i32 2
  %8 = load i64, ptr %7, align 8
  %9 = icmp ult i64 %6, %8
  br i1 %9, label %10, label %21

10:                                               ; preds = %5
  %11 = getelementptr inbounds %"class.StringDedup::Table::Resizer", ptr %4, i32 0, i32 1
  %12 = load ptr, ptr %11, align 8
  %13 = load i64, ptr %3, align 8
  %14 = getelementptr inbounds %"class.StringDedup::Table::Bucket", ptr %12, i64 %13
  %15 = load i64, ptr %3, align 8
  %16 = getelementptr inbounds %"class.StringDedup::Table::Resizer", ptr %4, i32 0, i32 2
  %17 = load i64, ptr %16, align 8
  call void @_ZNK11StringDedup5Table6Bucket6verifyEmm(ptr noundef nonnull align 8 dereferenceable(32) %14, i64 noundef %15, i64 noundef %17)
  br label %18

18:                                               ; preds = %10
  %19 = load i64, ptr %3, align 8
  %20 = add i64 %19, 1
  store i64 %20, ptr %3, align 8
  br label %5, !llvm.loop !11

21:                                               ; preds = %5
  ret void
}