; Function Attrs: mustprogress nounwind uwtable
define hidden void @_ZNK11StringDedup5Table7Resizer6verifyEv(ptr nocapture noundef nonnull readonly align 8 dereferenceable(40) %0) unnamed_addr #0 align 2 {
  %2 = getelementptr inbounds i8, ptr %0, i64 16
  %3 = load i64, ptr %2, align 8
  %.not = icmp eq i64 %3, 0
  br i1 %.not, label %._crit_edge, label %.lr.ph

.lr.ph:                                           ; preds = %1
  %4 = getelementptr inbounds i8, ptr %0, i64 8
  br label %5

5:                                                ; preds = %.lr.ph, %5
  %6 = phi i64 [ %3, %.lr.ph ], [ %10, %5 ]
  %.05 = phi i64 [ 0, %.lr.ph ], [ %9, %5 ]
  %7 = load ptr, ptr %4, align 8
  %8 = getelementptr inbounds %"class.StringDedup::Table::Bucket", ptr %7, i64 %.05
  tail call void @_ZNK11StringDedup5Table6Bucket6verifyEmm(ptr noundef nonnull align 8 dereferenceable(32) %8, i64 noundef %.05, i64 noundef %6)
  %9 = add nuw i64 %.05, 1
  %10 = load i64, ptr %2, align 8
  %11 = icmp ult i64 %9, %10
  br i1 %11, label %5, label %._crit_edge, !llvm.loop !14

._crit_edge:                                      ; preds = %5, %1
  ret void
}